target datalayout = "e-m:e-p270:32:32-p271:32:32-p272:64:64-i64:64-i128:128-f80:128-n8:16:32:64-S128"
target triple = "x86_64-pc-linux-gnu"

%struct.__va_list_tag = type { i32, i32, ptr, ptr }
%struct.CBaseStorageVariant = type { i16, i16, i16, %union.vValue, ptr }
%union.vValue = type { %struct.vt_array }
%struct.vt_array = type { %struct.vt_vector, i16, i16, i32, ptr }
%struct.vt_vector = type { i32, %union.anon.0 }
%union.anon.0 = type { ptr }

@hf_mswsp_cingroupsortaggregset_type = internal global i32 0, align 4
@ett_CInGroupSortAggregSet = internal global i32 0, align 4
@.str.1156 = private unnamed_addr constant [29 x i8] c"%s:%u: failed assertion \22%s\22\00", align 1
@.str.1157 = private unnamed_addr constant [31 x i8] c"epan/dissectors/packet-mswsp.c\00", align 1
@.str.1264 = private unnamed_addr constant [2 x i8] c"0\00", align 1
@.str.1324 = private unnamed_addr constant [22 x i8] c"CInGroupSortAggregSet\00", align 1
@.str.1325 = private unnamed_addr constant [10 x i8] c"inGroupId\00", align 1
@.str.1326 = private unnamed_addr constant [8 x i8] c"SortSet\00", align 1

; Function Attrs: null_pointer_is_valid sspstrong uwtable
define internal i32 @parse_CInGroupSortAggregSet_type(ptr noundef %0, i32 noundef %1, ptr noundef %2, ptr noundef %3) #0 {
  %5 = alloca ptr, align 8
  %6 = alloca i32, align 4
  %7 = alloca ptr, align 8
  %8 = alloca ptr, align 8
  %9 = alloca i8, align 1
  store ptr %0, ptr %5, align 8
  store i32 %1, ptr %6, align 4
  store ptr %2, ptr %7, align 8
  store ptr %3, ptr %8, align 8
  call void @llvm.lifetime.start.p0(i64 1, ptr %9) #11
  %10 = load ptr, ptr %5, align 8
  %11 = load i32, ptr %6, align 4
  %12 = call zeroext i8 @tvb_get_uint8(ptr noundef %10, i32 noundef %11)
  store i8 %12, ptr %9, align 1
  %13 = load i8, ptr %9, align 1
  %14 = zext i8 %13 to i32
  switch i32 %14, label %23 [
    i32 0, label %15
    i32 1, label %17
    i32 2, label %19
    i32 3, label %21
  ]

15:                                               ; preds = %4
  %16 = load ptr, ptr %8, align 8
  store i32 0, ptr %16, align 4
  br label %24

17:                                               ; preds = %4
  %18 = load ptr, ptr %8, align 8
  store i32 1, ptr %18, align 4
  br label %24

19:                                               ; preds = %4
  %20 = load ptr, ptr %8, align 8
  store i32 2, ptr %20, align 4
  br label %24

21:                                               ; preds = %4
  %22 = load ptr, ptr %8, align 8
  store i32 3, ptr %22, align 4
  br label %24

23:                                               ; preds = %4
  call void (ptr, ...) @proto_report_dissector_bug(ptr noundef @.str.1156, ptr noundef @.str.1157, i32 noundef 4785, ptr noundef @.str.1264) #12
  unreachable

24:                                               ; preds = %21, %19, %17, %15
  %25 = load ptr, ptr %7, align 8
  %26 = load i32, ptr @hf_mswsp_cingroupsortaggregset_type, align 4
  %27 = load ptr, ptr %5, align 8
  %28 = load i32, ptr %6, align 4
  %29 = load ptr, ptr %8, align 8
  %30 = load i32, ptr %29, align 4
  %31 = call ptr @proto_tree_add_uint(ptr noundef %25, i32 noundef %26, ptr noundef %27, i32 noundef %28, i32 noundef 1, i32 noundef %30)
  %32 = load i32, ptr %6, align 4
  %33 = add i32 %32, 1
  call void @llvm.lifetime.end.p0(i64 1, ptr %9) #11
  ret i32 %33
}

; Function Attrs: null_pointer_is_valid sspstrong uwtable
define internal i32 @parse_CInGroupSortAggregSet(ptr noundef %0, ptr noundef %1, i32 noundef %2, ptr noundef %3, ptr noundef %4, ptr noundef %5, ...) #0 {
  %7 = alloca ptr, align 8
  %8 = alloca ptr, align 8
  %9 = alloca i32, align 4
  %10 = alloca ptr, align 8
  %11 = alloca ptr, align 8
  %12 = alloca ptr, align 8
  %13 = alloca ptr, align 8
  %14 = alloca ptr, align 8
  %15 = alloca [1 x %struct.__va_list_tag], align 16
  %16 = alloca i32, align 4
  %17 = alloca ptr, align 8
  %18 = alloca %struct.CBaseStorageVariant, align 8
  store ptr %0, ptr %7, align 8
  store ptr %1, ptr %8, align 8
  store i32 %2, ptr %9, align 4
  store ptr %3, ptr %10, align 8
  store ptr %4, ptr %11, align 8
  store ptr %5, ptr %12, align 8
  call void @llvm.lifetime.start.p0(i64 8, ptr %13) #11
  call void @llvm.lifetime.start.p0(i64 8, ptr %14) #11
  call void @llvm.lifetime.start.p0(i64 24, ptr %15) #11
  call void @llvm.lifetime.start.p0(i64 4, ptr %16) #11
  call void @llvm.lifetime.start.p0(i64 8, ptr %17) #11
  %19 = getelementptr inbounds [1 x %struct.__va_list_tag], ptr %15, i64 0, i64 0
  call void @llvm.va_start.p0(ptr %19)
  %20 = call ptr @wmem_packet_scope()
  %21 = load ptr, ptr %12, align 8
  %22 = getelementptr inbounds [1 x %struct.__va_list_tag], ptr %15, i64 0, i64 0
  %23 = call noalias ptr @wmem_strdup_vprintf(ptr noundef %20, ptr noundef %21, ptr noundef %22)
  store ptr %23, ptr %17, align 8
  %24 = getelementptr inbounds [1 x %struct.__va_list_tag], ptr %15, i64 0, i64 0
  call void @llvm.va_end.p0(ptr %24)
  %25 = load ptr, ptr %10, align 8
  %26 = load ptr, ptr %7, align 8
  %27 = load i32, ptr %9, align 4
  %28 = load i32, ptr @ett_CInGroupSortAggregSet, align 4
  %29 = load ptr, ptr %17, align 8
  %30 = call ptr @proto_tree_add_subtree(ptr noundef %25, ptr noundef %26, i32 noundef %27, i32 noundef 0, i32 noundef %28, ptr noundef %13, ptr noundef %29)
  store ptr %30, ptr %14, align 8
  %31 = load ptr, ptr %7, align 8
  %32 = load i32, ptr %9, align 4
  %33 = load ptr, ptr %14, align 8
  %34 = call i32 @parse_CInGroupSortAggregSet_type(ptr noundef %31, i32 noundef %32, ptr noundef %33, ptr noundef %16)
  store i32 %34, ptr %9, align 4
  %35 = load ptr, ptr %7, align 8
  %36 = load i32, ptr %9, align 4
  %37 = load ptr, ptr %11, align 8
  %38 = call i32 (ptr, i32, i32, ptr, ptr, ...) @parse_padding(ptr noundef %35, i32 noundef %36, i32 noundef 4, ptr noundef %37, ptr noundef @.str.1324)
  store i32 %38, ptr %9, align 4
  %39 = load i32, ptr %16, align 4
  %40 = icmp eq i32 %39, 3
  br i1 %40, label %41, label %48

41:                                               ; preds = %6
  call void @llvm.lifetime.start.p0(i64 48, ptr %18) #11
  %42 = load ptr, ptr %7, align 8
  %43 = load ptr, ptr %8, align 8
  %44 = load i32, ptr %9, align 4
  %45 = load ptr, ptr %14, align 8
  %46 = load ptr, ptr %11, align 8
  %47 = call i32 @parse_CBaseStorageVariant(ptr noundef %42, ptr noundef %43, i32 noundef %44, ptr noundef %45, ptr noundef %46, ptr noundef %18, ptr noundef @.str.1325)
  store i32 %47, ptr %9, align 4
  call void @llvm.lifetime.end.p0(i64 48, ptr %18) #11
  br label %48

48:                                               ; preds = %41, %6
  %49 = load ptr, ptr %7, align 8
  %50 = load i32, ptr %9, align 4
  %51 = load ptr, ptr %14, align 8
  %52 = load ptr, ptr %11, align 8
  %53 = call i32 (ptr, i32, ptr, ptr, ptr, ...) @parse_CSortSet(ptr noundef %49, i32 noundef %50, ptr noundef %51, ptr noundef %52, ptr noundef @.str.1326)
  store i32 %53, ptr %9, align 4
  %54 = load ptr, ptr %13, align 8
  %55 = load ptr, ptr %7, align 8
  %56 = load i32, ptr %9, align 4
  call void @proto_item_set_end(ptr noundef %54, ptr noundef %55, i32 noundef %56)
  %57 = load i32, ptr %9, align 4
  call void @llvm.lifetime.end.p0(i64 8, ptr %17) #11
  call void @llvm.lifetime.end.p0(i64 4, ptr %16) #11
  call void @llvm.lifetime.end.p0(i64 24, ptr %15) #11
  call void @llvm.lifetime.end.p0(i64 8, ptr %14) #11
  call void @llvm.lifetime.end.p0(i64 8, ptr %13) #11
  ret i32 %57
}